; Function Attrs: nounwind uwtable
define <2 x float> @b2Body_GetWorldPointVelocity(i64 %0, <2 x float> %1) local_unnamed_addr #8 {
  %.sroa.2.0.extract.shift = lshr i64 %0, 32
  %3 = trunc nuw i64 %.sroa.2.0.extract.shift to i32
  %4 = and i32 %3, 65535
  %5 = tail call ptr @b2GetWorld(i32 noundef %4) #10
  %6 = getelementptr inbounds nuw i8, ptr %5, i64 1032
  %.val.i = load ptr, ptr %6, align 8, !tbaa !10
  %7 = shl i64 %0, 32
  %sext.i = add i64 %7, -4294967296
  %8 = ashr exact i64 %sext.i, 25
  %9 = getelementptr inbounds i8, ptr %.val.i, i64 %8
  %10 = getelementptr inbounds nuw i8, ptr %9, i64 40
  %11 = load i32, ptr %10, align 8, !tbaa !19
  %12 = icmp eq i32 %11, 2
  br i1 %12, label %b2GetBodyState.exit, label %b2GetBodyState.exit.thread

b2GetBodyState.exit:                              ; preds = %2
  %13 = getelementptr inbounds nuw i8, ptr %5, i64 1072
  %.val.i16 = load ptr, ptr %13, align 8, !tbaa !24
  %14 = getelementptr inbounds nuw i8, ptr %.val.i16, i64 192
  %.val5.i = load ptr, ptr %14, align 8, !tbaa !18
  %15 = icmp eq ptr %.val5.i, null
  br i1 %15, label %b2GetBodyState.exit.thread, label %16

16:                                               ; preds = %b2GetBodyState.exit
  %17 = getelementptr inbounds nuw i8, ptr %9, i64 44
  %18 = load i32, ptr %17, align 4, !tbaa !27
  %19 = sext i32 %18 to i64
  %20 = getelementptr inbounds %struct.b2BodyState, ptr %.val5.i, i64 %19
  %21 = getelementptr inbounds nuw i8, ptr %.val.i16, i64 176
  %.val15 = load ptr, ptr %21, align 8, !tbaa !14
  %22 = getelementptr inbounds %struct.b2BodySim, ptr %.val15, i64 %19, i32 1
  %23 = load <2 x float>, ptr %22, align 4
  %24 = fsub <2 x float> %1, %23
  %25 = extractelement <2 x float> %24, i64 0
  %26 = fsub <2 x float> %1, %23
  %27 = extractelement <2 x float> %26, i64 1
  %28 = getelementptr inbounds nuw i8, ptr %20, i64 8
  %29 = load float, ptr %28, align 4, !tbaa !117
  %30 = fmul float %29, %25
  %31 = load <2 x float>, ptr %20, align 4
  %.sroa.01.0.vec.extract.i21 = extractelement <2 x float> %31, i64 0
  %32 = fmul float %29, %27
  %33 = fsub float %.sroa.01.0.vec.extract.i21, %32
  %.sroa.02.0.vec.insert.i23 = insertelement <2 x float> poison, float %33, i64 0
  %.sroa.01.4.vec.extract.i24 = extractelement <2 x float> %31, i64 1
  %34 = fadd float %.sroa.01.4.vec.extract.i24, %30
  %.sroa.02.4.vec.insert.i26 = insertelement <2 x float> %.sroa.02.0.vec.insert.i23, float %34, i64 1
  br label %b2GetBodyState.exit.thread

b2GetBodyState.exit.thread:                       ; preds = %2, %b2GetBodyState.exit, %16
  %.sroa.014.0 = phi <2 x float> [ %.sroa.02.4.vec.insert.i26, %16 ], [ zeroinitializer, %b2GetBodyState.exit ], [ zeroinitializer, %2 ]
  ret <2 x float> %.sroa.014.0
}